target datalayout = "e-m:e-p270:32:32-p271:32:32-p272:64:64-i64:64-i128:128-f80:128-n8:16:32:64-S128"
target triple = "x86_64-pc-linux-gnu"

%struct.darktable_t = type { %struct.dt_codepath_t, i32, i32, ptr, ptr, ptr, ptr, ptr, ptr, ptr, ptr, ptr, ptr, ptr, ptr, ptr, ptr, ptr, ptr, ptr, ptr, ptr, ptr, ptr, ptr, ptr, ptr, ptr, ptr, ptr, [64 x %struct.dt_pthread_mutex_t], %struct.dt_pthread_mutex_t, %struct.dt_pthread_mutex_t, %struct.dt_pthread_mutex_t, %struct.dt_pthread_mutex_t, %struct.dt_pthread_mutex_t, ptr, ptr, ptr, ptr, ptr, ptr, ptr, ptr, ptr, ptr, ptr, ptr, ptr, %struct.dt_lua_state_t, ptr, double, ptr, i32, [47 x i32], i32, i32, ptr, ptr, %struct.dt_sys_resources_t, %struct.dt_backthumb_t, %struct.dt_gimp_t }
%struct.dt_codepath_t = type { i8, [3 x i8] }
%struct.dt_pthread_mutex_t = type { %union.pthread_mutex_t }
%union.pthread_mutex_t = type { %struct.__pthread_mutex_s }
%struct.__pthread_mutex_s = type { i32, i32, i32, i32, i32, i16, i16, %struct.__pthread_internal_list }
%struct.__pthread_internal_list = type { ptr, ptr }
%struct.dt_lua_state_t = type { i32 }
%struct.dt_sys_resources_t = type { i64, i64, ptr, ptr, i32 }
%struct.dt_backthumb_t = type { double, double, i32, i32, i32, i32 }
%struct.dt_gimp_t = type { i32, ptr, ptr, i32, i32 }

@darktable = external global %struct.darktable_t, align 8
@.str.18 = private unnamed_addr constant [11 x i8] c"%s/kernels\00", align 1

; Function Attrs: nounwind uwtable
define void @dt_loc_get_datadir(ptr noundef %0, i64 noundef %1) #0 {
  %3 = alloca ptr, align 8
  %4 = alloca i64, align 8
  store ptr %0, ptr %3, align 8, !tbaa !6
  store i64 %1, ptr %4, align 8, !tbaa !66
  %5 = load ptr, ptr %3, align 8, !tbaa !6
  %6 = load ptr, ptr getelementptr inbounds nuw (%struct.darktable_t, ptr @darktable, i32 0, i32 37), align 8, !tbaa !51
  %7 = load i64, ptr %4, align 8, !tbaa !66
  %8 = call i64 @g_strlcpy(ptr noundef %5, ptr noundef %6, i64 noundef %7)
  ret void
}

; Function Attrs: nounwind uwtable
define void @dt_loc_get_kerneldir(ptr noundef %0, i64 noundef %1) #0 {
  %3 = alloca ptr, align 8
  %4 = alloca i64, align 8
  %5 = alloca [4096 x i8], align 16
  store ptr %0, ptr %3, align 8, !tbaa !6
  store i64 %1, ptr %4, align 8, !tbaa !66
  call void @llvm.lifetime.start.p0(i64 4096, ptr %5) #10
  call void @llvm.memset.p0.i64(ptr align 16 %5, i8 0, i64 4096, i1 false)
  %6 = getelementptr inbounds [4096 x i8], ptr %5, i64 0, i64 0
  call void @dt_loc_get_datadir(ptr noundef %6, i64 noundef 4096)
  %7 = load ptr, ptr %3, align 8, !tbaa !6
  %8 = load i64, ptr %4, align 8, !tbaa !66
  %9 = getelementptr inbounds [4096 x i8], ptr %5, i64 0, i64 0
  %10 = call i32 (ptr, i64, ptr, ...) @snprintf(ptr noundef %7, i64 noundef %8, ptr noundef @.str.18, ptr noundef %9) #10
  call void @llvm.lifetime.end.p0(i64 4096, ptr %5) #10
  ret void
}