; Function Attrs: nounwind uwtable
define void @dt_loc_get_kerneldir(ptr noundef writeonly captures(none) %0, i64 noundef %1) local_unnamed_addr #0 {
  %3 = alloca [4096 x i8], align 16
  call void @llvm.lifetime.start.p0(i64 4096, ptr nonnull %3) #11
  call void @llvm.memset.p0.i64(ptr noundef nonnull align 16 dereferenceable(4096) %3, i8 0, i64 4096, i1 false)
  %4 = load ptr, ptr getelementptr inbounds nuw (i8, ptr @darktable, i64 3000), align 8, !tbaa !50
  %5 = call i64 @g_strlcpy(ptr noundef nonnull %3, ptr noundef %4, i64 noundef 4096) #11
  %6 = call i32 (ptr, i64, ptr, ...) @snprintf(ptr noundef %0, i64 noundef %1, ptr noundef nonnull @.str.18, ptr noundef nonnull %3) #11
  call void @llvm.lifetime.end.p0(i64 4096, ptr nonnull %3) #11
  ret void
}